target datalayout = "e-m:e-p270:32:32-p271:32:32-p272:64:64-i64:64-i128:128-f80:128-n8:16:32:64-S128"
target triple = "x86_64-pc-linux-gnu"

%struct.HWLM = type { i8, i64, %union.AccelAux, %union.AccelAux }
%union.AccelAux = type { %struct.anon.5 }
%struct.anon.5 = type { i8, i8, <2 x i64>, <2 x i64>, <2 x i64>, <2 x i64> }
%struct.hs_scratch = type { i32, i8, i32, i32, i32, i32, i32, %struct.RoseContext, ptr, ptr, ptr, ptr, ptr, ptr, ptr, i64, %struct.catchup_pq, %struct.core_info, %struct.match_deduper, i32, i32, ptr, ptr, ptr, ptr, ptr, i64, i32, i32, i32, i32, i32, ptr, ptr, i8 }
%struct.RoseContext = type { i8, i64, i64, i64, i64, i64, i64, i64, i64, i64, i32, i32, ptr, i64, ptr, i64 }
%struct.catchup_pq = type { ptr, i32 }
%struct.core_info = type { ptr, ptr, ptr, ptr, ptr, ptr, ptr, ptr, i64, ptr, i64, i64, i8 }
%struct.match_deduper = type { [2 x ptr], [2 x ptr], [2 x ptr], i32, i32, i64, i8 }

; Function Attrs: nounwind uwtable
define hidden i32 @hwlmExecStreaming(ptr noundef %0, i64 noundef %1, i64 noundef %2, ptr noundef %3, ptr noundef %4, i64 noundef %5) #0 {
  %7 = alloca i32, align 4
  %8 = alloca ptr, align 8
  %9 = alloca i64, align 8
  %10 = alloca i64, align 8
  %11 = alloca ptr, align 8
  %12 = alloca ptr, align 8
  %13 = alloca i64, align 8
  %14 = alloca ptr, align 8
  %15 = alloca i64, align 8
  %16 = alloca ptr, align 8
  %17 = alloca i32, align 4
  %18 = alloca ptr, align 8
  store ptr %0, ptr %8, align 8
  store i64 %1, ptr %9, align 8
  store i64 %2, ptr %10, align 8
  store ptr %3, ptr %11, align 8
  store ptr %4, ptr %12, align 8
  store i64 %5, ptr %13, align 8
  call void @llvm.lifetime.start.p0(i64 8, ptr %14) #11
  %19 = load ptr, ptr %12, align 8
  %20 = getelementptr inbounds nuw %struct.hs_scratch, ptr %19, i32 0, i32 17
  %21 = getelementptr inbounds nuw %struct.core_info, ptr %20, i32 0, i32 9
  %22 = load ptr, ptr %21, align 8
  store ptr %22, ptr %14, align 8
  call void @llvm.lifetime.start.p0(i64 8, ptr %15) #11
  %23 = load ptr, ptr %12, align 8
  %24 = getelementptr inbounds nuw %struct.hs_scratch, ptr %23, i32 0, i32 17
  %25 = getelementptr inbounds nuw %struct.core_info, ptr %24, i32 0, i32 10
  %26 = load i64, ptr %25, align 8
  store i64 %26, ptr %15, align 8
  call void @llvm.lifetime.start.p0(i64 8, ptr %16) #11
  %27 = load ptr, ptr %12, align 8
  %28 = getelementptr inbounds nuw %struct.hs_scratch, ptr %27, i32 0, i32 17
  %29 = getelementptr inbounds nuw %struct.core_info, ptr %28, i32 0, i32 7
  %30 = load ptr, ptr %29, align 8
  store ptr %30, ptr %16, align 8
  br label %31

31:                                               ; preds = %6
  br label %32

32:                                               ; preds = %31
  br label %33

33:                                               ; preds = %32
  %34 = load i64, ptr %13, align 8
  %35 = icmp ne i64 %34, 0
  br i1 %35, label %37, label %36

36:                                               ; preds = %33
  store i32 0, ptr %7, align 4
  store i32 1, ptr %17, align 4
  br label %104

37:                                               ; preds = %33
  %38 = load ptr, ptr %8, align 8
  %39 = getelementptr inbounds nuw %struct.HWLM, ptr %38, i32 0, i32 0
  %40 = load i8, ptr %39, align 16
  %41 = zext i8 %40 to i32
  %42 = icmp eq i32 %41, 16
  br i1 %42, label %43, label %68

43:                                               ; preds = %37
  br label %44

44:                                               ; preds = %43
  br label %45

45:                                               ; preds = %44
  br label %46

46:                                               ; preds = %45
  %47 = load i64, ptr %10, align 8
  %48 = icmp ne i64 %47, 0
  br i1 %48, label %49, label %58

49:                                               ; preds = %46
  %50 = load ptr, ptr %8, align 8
  %51 = getelementptr inbounds nuw i8, ptr %50, i64 192
  %52 = load ptr, ptr %16, align 8
  %53 = load i64, ptr %9, align 8
  %54 = load i64, ptr %10, align 8
  %55 = load ptr, ptr %11, align 8
  %56 = load ptr, ptr %12, align 8
  %57 = call i32 @noodExec(ptr noundef %51, ptr noundef %52, i64 noundef %53, i64 noundef %54, ptr noundef %55, ptr noundef %56)
  store i32 %57, ptr %7, align 4
  store i32 1, ptr %17, align 4
  br label %104

58:                                               ; preds = %46
  %59 = load ptr, ptr %8, align 8
  %60 = getelementptr inbounds nuw i8, ptr %59, i64 192
  %61 = load ptr, ptr %14, align 8
  %62 = load i64, ptr %15, align 8
  %63 = load ptr, ptr %16, align 8
  %64 = load i64, ptr %9, align 8
  %65 = load ptr, ptr %11, align 8
  %66 = load ptr, ptr %12, align 8
  %67 = call i32 @noodExecStreaming(ptr noundef %60, ptr noundef %61, i64 noundef %62, ptr noundef %63, i64 noundef %64, ptr noundef %65, ptr noundef %66)
  store i32 %67, ptr %7, align 4
  store i32 1, ptr %17, align 4
  br label %104

68:                                               ; preds = %37
  call void @llvm.lifetime.start.p0(i64 8, ptr %18) #11
  %69 = load ptr, ptr %8, align 8
  %70 = getelementptr inbounds nuw %struct.HWLM, ptr %69, i32 0, i32 3
  store ptr %70, ptr %18, align 8
  %71 = load i64, ptr %13, align 8
  %72 = load ptr, ptr %8, align 8
  %73 = getelementptr inbounds nuw %struct.HWLM, ptr %72, i32 0, i32 1
  %74 = load i64, ptr %73, align 8
  %75 = xor i64 %74, -1
  %76 = and i64 %71, %75
  %77 = icmp eq i64 %76, 0
  br i1 %77, label %78, label %84

78:                                               ; preds = %68
  br label %79

79:                                               ; preds = %78
  br label %80

80:                                               ; preds = %79
  br label %81

81:                                               ; preds = %80
  %82 = load ptr, ptr %8, align 8
  %83 = getelementptr inbounds nuw %struct.HWLM, ptr %82, i32 0, i32 2
  store ptr %83, ptr %18, align 8
  br label %84

84:                                               ; preds = %81, %68
  %85 = load ptr, ptr %18, align 8
  %86 = load ptr, ptr %14, align 8
  %87 = load i64, ptr %15, align 8
  %88 = load ptr, ptr %16, align 8
  %89 = load i64, ptr %9, align 8
  call void @do_accel_streaming(ptr noundef %85, ptr noundef %86, i64 noundef %87, ptr noundef %88, i64 noundef %89, ptr noundef %10)
  br label %90

90:                                               ; preds = %84
  br label %91

91:                                               ; preds = %90
  br label %92

92:                                               ; preds = %91
  %93 = load ptr, ptr %8, align 8
  %94 = getelementptr inbounds nuw i8, ptr %93, i64 192
  %95 = load ptr, ptr %14, align 8
  %96 = load i64, ptr %15, align 8
  %97 = load ptr, ptr %16, align 8
  %98 = load i64, ptr %9, align 8
  %99 = load i64, ptr %10, align 8
  %100 = load ptr, ptr %11, align 8
  %101 = load ptr, ptr %12, align 8
  %102 = load i64, ptr %13, align 8
  %103 = call i32 @fdrExecStreaming(ptr noundef %94, ptr noundef %95, i64 noundef %96, ptr noundef %97, i64 noundef %98, i64 noundef %99, ptr noundef %100, ptr noundef %101, i64 noundef %102)
  store i32 %103, ptr %7, align 4
  store i32 1, ptr %17, align 4
  call void @llvm.lifetime.end.p0(i64 8, ptr %18) #11
  br label %104

104:                                              ; preds = %92, %58, %49, %36
  call void @llvm.lifetime.end.p0(i64 8, ptr %16) #11
  call void @llvm.lifetime.end.p0(i64 8, ptr %15) #11
  call void @llvm.lifetime.end.p0(i64 8, ptr %14) #11
  %105 = load i32, ptr %7, align 4
  ret i32 %105
}