; Function Attrs: nounwind uwtable
define hidden i32 @hwlmExecStreaming(ptr noundef %0, i64 noundef %1, i64 noundef %2, ptr noundef %3, ptr noundef %4, i64 noundef %5) local_unnamed_addr #3 {
  %7 = alloca i64, align 8
  store i64 %2, ptr %7, align 8
  %8 = getelementptr inbounds nuw i8, ptr %4, i64 304
  %9 = load ptr, ptr %8, align 8
  %10 = getelementptr inbounds nuw i8, ptr %4, i64 312
  %11 = load i64, ptr %10, align 8
  %12 = getelementptr inbounds nuw i8, ptr %4, i64 288
  %13 = load ptr, ptr %12, align 8
  %.not = icmp eq i64 %5, 0
  br i1 %.not, label %32, label %14

14:                                               ; preds = %6
  %15 = load i8, ptr %0, align 16
  %16 = icmp eq i8 %15, 16
  br i1 %16, label %17, label %23

17:                                               ; preds = %14
  %.not37 = icmp eq i64 %2, 0
  %18 = getelementptr inbounds nuw i8, ptr %0, i64 192
  br i1 %.not37, label %21, label %19

19:                                               ; preds = %17
  %20 = tail call i32 @noodExec(ptr noundef nonnull %18, ptr noundef %13, i64 noundef %1, i64 noundef %2, ptr noundef %3, ptr noundef nonnull %4) #10
  br label %32

21:                                               ; preds = %17
  %22 = tail call i32 @noodExecStreaming(ptr noundef nonnull %18, ptr noundef %9, i64 noundef %11, ptr noundef %13, i64 noundef %1, ptr noundef %3, ptr noundef nonnull %4) #10
  br label %32

23:                                               ; preds = %14
  %24 = getelementptr inbounds nuw i8, ptr %0, i64 8
  %25 = load i64, ptr %24, align 8
  %26 = xor i64 %25, -1
  %27 = and i64 %5, %26
  %28 = icmp eq i64 %27, 0
  %spec.select.v = select i1 %28, i64 16, i64 96
  %spec.select = getelementptr inbounds nuw i8, ptr %0, i64 %spec.select.v
  call fastcc void @do_accel_streaming(ptr noundef nonnull %spec.select, ptr noundef %9, i64 noundef %11, ptr noundef %13, i64 noundef %1, ptr noundef %7)
  %29 = getelementptr inbounds nuw i8, ptr %0, i64 192
  %30 = load i64, ptr %7, align 8
  %31 = tail call i32 @fdrExecStreaming(ptr noundef nonnull %29, ptr noundef %9, i64 noundef %11, ptr noundef %13, i64 noundef %1, i64 noundef %30, ptr noundef %3, ptr noundef nonnull %4, i64 noundef %5) #10
  br label %32

32:                                               ; preds = %6, %23, %21, %19
  %.034 = phi i32 [ %20, %19 ], [ %22, %21 ], [ %31, %23 ], [ 0, %6 ]
  ret i32 %.034
}